target datalayout = "e-m:e-p270:32:32-p271:32:32-p272:64:64-i64:64-i128:128-f80:128-n8:16:32:64-S128"
target triple = "x86_64-pc-linux-gnu"

%struct.OSSL_TIME = type { i64 }
%struct.ssl_st = type { i32, ptr, ptr, ptr, %struct.CRYPTO_REF_COUNT, ptr, %struct.crypto_ex_data_st }
%struct.CRYPTO_REF_COUNT = type { i32 }
%struct.crypto_ex_data_st = type { ptr, ptr }
%struct.ssl_connection_st = type { %struct.ssl_st, ptr, i32, ptr, ptr, ptr, i32, ptr, i32, i32, i32, i32, %struct.OSSL_TIME, %struct.OSSL_TIME, %struct.ossl_statem_st, i32, ptr, ptr, i64, i64, i64, %struct.ossl_quic_tls_callbacks_st, ptr, ptr, %struct.anon, ptr, ptr, ptr, i32, ptr, %struct.ssl_dane_st, ptr, ptr, ptr, ptr, i32, [64 x i8], [64 x i8], [64 x i8], [64 x i8], [64 x i8], [64 x i8], [64 x i8], [64 x i8], [64 x i8], [64 x i8], [64 x i8], [64 x i8], ptr, [64 x i8], i64, i32, i64, [32 x i8], ptr, ptr, ptr, i64, ptr, [32 x i8], i64, i32, ptr, ptr, i32, i32, ptr, ptr, ptr, ptr, ptr, i64, ptr, ptr, i64, i32, i32, i32, i64, i32, i32, i64, i64, i64, %struct.anon.1, ptr, i32, ptr, ptr, ptr, i32, ptr, ptr, ptr, i32, i32, i32, i32, ptr, i64, i32, ptr, %struct.srp_ctx_st, ptr, %struct.record_layer_st, ptr, ptr, ptr, ptr, i64, i32, i32, i32, i64, i64, i64, ptr, ptr, ptr, ptr, ptr, i64, ptr, i64, ptr, i64 }
%struct.ossl_statem_st = type { i32, i32, i32, i32, i32, i32, i32, i32, i32, i32, i32, i32, i32, ptr, ptr, ptr, i8 }
%struct.ossl_quic_tls_callbacks_st = type { ptr, ptr, ptr, ptr, ptr, ptr }
%struct.anon = type { i64, [32 x i8], [32 x i8], ptr, ptr, i32, i32, i32, i32, [2 x i8], i32, i32, i32, i32, %struct.anon.0, [64 x i8], i64, [64 x i8], i64, i32, i32, ptr, i64, ptr, i64, i32, i8, i8, i16, ptr, i16 }
%struct.anon.0 = type { [128 x i8], i64, [128 x i8], i64, i64, i32, ptr, ptr, [4 x ptr], [4 x i16], i64, i32, ptr, i64, ptr, i64, ptr, ptr, ptr, i32, i64, ptr, i32, ptr, i64, ptr, i64, ptr, i64, ptr, ptr, ptr, ptr, i64, i64, ptr, ptr, i32, i32, i32, i32 }
%struct.ssl_dane_st = type { ptr, ptr, ptr, ptr, ptr, i32, i32, i32, i64 }
%struct.anon.1 = type { [29 x i8], ptr, ptr, ptr, i32, ptr, i16, i32, %struct.anon.2, i32, i32, i64, ptr, i64, ptr, i64, ptr, i64, ptr, i64, ptr, i64, ptr, ptr, ptr, ptr, ptr, ptr, ptr, i64, ptr, i64, i32, i32, i32, i32, ptr, i64, i32, i8, i32, [4 x i32], i32, i8, i8, i8, i8 }
%struct.anon.2 = type { ptr, ptr, ptr, i64 }
%struct.srp_ctx_st = type { ptr, ptr, ptr, ptr, ptr, ptr, ptr, ptr, ptr, ptr, ptr, ptr, ptr, ptr, i32, i64 }
%struct.record_layer_st = type { ptr, ptr, ptr, ptr, ptr, ptr, ptr, ptr, i64, i32, i64, [4 x i8], i64, i64, i8, ptr, i32, ptr, ptr, ptr, i64, i64, i64, i64, [32 x %struct.tls_record_st] }
%struct.tls_record_st = type { ptr, i32, i8, ptr, ptr, i64, i64, i16, [8 x i8] }
%struct.ssl_ctx_st = type { ptr, ptr, ptr, ptr, ptr, ptr, ptr, i64, ptr, ptr, i32, %struct.OSSL_TIME, ptr, ptr, ptr, %struct.anon.3, %struct.CRYPTO_REF_COUNT, ptr, ptr, ptr, ptr, ptr, ptr, ptr, ptr, ptr, %struct.crypto_ex_data_st, ptr, ptr, ptr, ptr, ptr, ptr, ptr, i64, i32, i32, i32, i64, ptr, ptr, i32, ptr, ptr, i32, i64, [32 x i8], ptr, ptr, ptr, i32, ptr, ptr, ptr, i64, i64, i64, i64, ptr, ptr, ptr, ptr, ptr, %struct.anon.4, ptr, ptr, ptr, ptr, %struct.srp_ctx_st, %struct.dane_ctx_st, ptr, ptr, ptr, ptr, i32, i32, ptr, ptr, i64, i64, ptr, ptr, ptr, i64, ptr, ptr, i32, ptr, ptr, ptr, [14 x i32], [24 x ptr], [14 x ptr], [14 x i64], i64, ptr, ptr, ptr, i64, i64, ptr, i64, i64, i32, i32, i32, i32, ptr, i64, ptr, i64, i64, ptr, ptr }
%struct.anon.3 = type { i32, i32, i32, i32, i32, i32, i32, i32, i32, i32, i32 }
%struct.anon.4 = type { ptr, ptr, [16 x i8], ptr, ptr, ptr, ptr, ptr, i32, i8, i64, ptr, i64, ptr, i64, ptr, i64, ptr, ptr, i64, ptr, ptr, ptr, i64, ptr, ptr, ptr, ptr, [32 x i8] }
%struct.dane_ctx_st = type { ptr, ptr, i8, i64 }
%struct.sigalg_lookup_st = type { ptr, i16, i32, i32, i32, i32, i32, i32, i32 }

; Function Attrs: nounwind uwtable
define internal ptr @tls1_lookup_sigalg(ptr noundef %0, i16 noundef zeroext %1) #1 {
  %3 = alloca ptr, align 8
  %4 = alloca ptr, align 8
  %5 = alloca i16, align 2
  %6 = alloca i64, align 8
  %7 = alloca ptr, align 8
  %8 = alloca i32, align 4
  store ptr %0, ptr %4, align 8, !tbaa !25
  store i16 %1, ptr %5, align 2, !tbaa !100
  call void @llvm.lifetime.start.p0(i64 8, ptr %6) #8
  call void @llvm.lifetime.start.p0(i64 8, ptr %7) #8
  store i64 0, ptr %6, align 8, !tbaa !3
  %9 = load ptr, ptr %4, align 8, !tbaa !25
  %10 = getelementptr inbounds nuw %struct.ssl_connection_st, ptr %9, i32 0, i32 0
  %11 = getelementptr inbounds nuw %struct.ssl_st, ptr %10, i32 0, i32 1
  %12 = load ptr, ptr %11, align 8, !tbaa !137
  %13 = getelementptr inbounds nuw %struct.ssl_ctx_st, ptr %12, i32 0, i32 95
  %14 = load ptr, ptr %13, align 8, !tbaa !224
  store ptr %14, ptr %7, align 8, !tbaa !201
  br label %15

15:                                               ; preds = %41, %2
  %16 = load i64, ptr %6, align 8, !tbaa !3
  %17 = load ptr, ptr %4, align 8, !tbaa !25
  %18 = getelementptr inbounds nuw %struct.ssl_connection_st, ptr %17, i32 0, i32 0
  %19 = getelementptr inbounds nuw %struct.ssl_st, ptr %18, i32 0, i32 1
  %20 = load ptr, ptr %19, align 8, !tbaa !137
  %21 = getelementptr inbounds nuw %struct.ssl_ctx_st, ptr %20, i32 0, i32 94
  %22 = load i64, ptr %21, align 8, !tbaa !226
  %23 = icmp ult i64 %16, %22
  br i1 %23, label %24, label %46

24:                                               ; preds = %15
  %25 = load ptr, ptr %7, align 8, !tbaa !201
  %26 = getelementptr inbounds nuw %struct.sigalg_lookup_st, ptr %25, i32 0, i32 1
  %27 = load i16, ptr %26, align 8, !tbaa !218
  %28 = zext i16 %27 to i32
  %29 = load i16, ptr %5, align 2, !tbaa !100
  %30 = zext i16 %29 to i32
  %31 = icmp eq i32 %28, %30
  br i1 %31, label %32, label %40

32:                                               ; preds = %24
  %33 = load ptr, ptr %7, align 8, !tbaa !201
  %34 = getelementptr inbounds nuw %struct.sigalg_lookup_st, ptr %33, i32 0, i32 8
  %35 = load i32, ptr %34, align 4, !tbaa !208
  %36 = icmp ne i32 %35, 0
  br i1 %36, label %38, label %37

37:                                               ; preds = %32
  store ptr null, ptr %3, align 8
  store i32 1, ptr %8, align 4
  br label %47

38:                                               ; preds = %32
  %39 = load ptr, ptr %7, align 8, !tbaa !201
  store ptr %39, ptr %3, align 8
  store i32 1, ptr %8, align 4
  br label %47

40:                                               ; preds = %24
  br label %41

41:                                               ; preds = %40
  %42 = load ptr, ptr %7, align 8, !tbaa !201
  %43 = getelementptr inbounds nuw %struct.sigalg_lookup_st, ptr %42, i32 1
  store ptr %43, ptr %7, align 8, !tbaa !201
  %44 = load i64, ptr %6, align 8, !tbaa !3
  %45 = add i64 %44, 1
  store i64 %45, ptr %6, align 8, !tbaa !3
  br label %15, !llvm.loop !245

46:                                               ; preds = %15
  store ptr null, ptr %3, align 8
  store i32 1, ptr %8, align 4
  br label %47

47:                                               ; preds = %46, %38, %37
  call void @llvm.lifetime.end.p0(i64 8, ptr %7) #8
  call void @llvm.lifetime.end.p0(i64 8, ptr %6) #8
  %48 = load ptr, ptr %3, align 8
  ret ptr %48
}

; Function Attrs: nounwind uwtable
define i32 @SSL_get_sigalgs(ptr noundef %0, i32 noundef %1, ptr noundef %2, ptr noundef %3, ptr noundef %4, ptr noundef %5, ptr noundef %6) #1 {
  %8 = alloca i32, align 4
  %9 = alloca ptr, align 8
  %10 = alloca i32, align 4
  %11 = alloca ptr, align 8
  %12 = alloca ptr, align 8
  %13 = alloca ptr, align 8
  %14 = alloca ptr, align 8
  %15 = alloca ptr, align 8
  %16 = alloca ptr, align 8
  %17 = alloca i64, align 8
  %18 = alloca ptr, align 8
  %19 = alloca i32, align 4
  %20 = alloca ptr, align 8
  store ptr %0, ptr %9, align 8, !tbaa !9
  store i32 %1, ptr %10, align 4, !tbaa !128
  store ptr %2, ptr %11, align 8, !tbaa !151
  store ptr %3, ptr %12, align 8, !tbaa !151
  store ptr %4, ptr %13, align 8, !tbaa !151
  store ptr %5, ptr %14, align 8, !tbaa !172
  store ptr %6, ptr %15, align 8, !tbaa !172
  call void @llvm.lifetime.start.p0(i64 8, ptr %16) #8
  call void @llvm.lifetime.start.p0(i64 8, ptr %17) #8
  call void @llvm.lifetime.start.p0(i64 8, ptr %18) #8
  %21 = load ptr, ptr %9, align 8, !tbaa !9
  %22 = icmp eq ptr %21, null
  br i1 %22, label %23, label %24

23:                                               ; preds = %7
  br label %45

24:                                               ; preds = %7
  %25 = load ptr, ptr %9, align 8, !tbaa !9
  %26 = getelementptr inbounds nuw %struct.ssl_st, ptr %25, i32 0, i32 0
  %27 = load i32, ptr %26, align 8, !tbaa !24
  %28 = icmp eq i32 %27, 0
  br i1 %28, label %29, label %31

29:                                               ; preds = %24
  %30 = load ptr, ptr %9, align 8, !tbaa !9
  br label %43

31:                                               ; preds = %24
  %32 = load ptr, ptr %9, align 8, !tbaa !9
  %33 = getelementptr inbounds nuw %struct.ssl_st, ptr %32, i32 0, i32 0
  %34 = load i32, ptr %33, align 8, !tbaa !24
  %35 = and i32 %34, 128
  %36 = icmp ne i32 %35, 0
  br i1 %36, label %37, label %40

37:                                               ; preds = %31
  %38 = load ptr, ptr %9, align 8, !tbaa !9
  %39 = call ptr @ossl_quic_obj_get0_handshake_layer(ptr noundef %38)
  br label %41

40:                                               ; preds = %31
  br label %41

41:                                               ; preds = %40, %37
  %42 = phi ptr [ %39, %37 ], [ null, %40 ]
  br label %43

43:                                               ; preds = %41, %29
  %44 = phi ptr [ %30, %29 ], [ %42, %41 ]
  br label %45

45:                                               ; preds = %43, %23
  %46 = phi ptr [ null, %23 ], [ %44, %43 ]
  store ptr %46, ptr %18, align 8, !tbaa !25
  %47 = load ptr, ptr %18, align 8, !tbaa !25
  %48 = icmp eq ptr %47, null
  br i1 %48, label %49, label %50

49:                                               ; preds = %45
  store i32 0, ptr %8, align 4
  store i32 1, ptr %19, align 4
  br label %154

50:                                               ; preds = %45
  %51 = load ptr, ptr %18, align 8, !tbaa !25
  %52 = getelementptr inbounds nuw %struct.ssl_connection_st, ptr %51, i32 0, i32 24
  %53 = getelementptr inbounds nuw %struct.anon, ptr %52, i32 0, i32 14
  %54 = getelementptr inbounds nuw %struct.anon.0, ptr %53, i32 0, i32 31
  %55 = load ptr, ptr %54, align 8, !tbaa !271
  store ptr %55, ptr %16, align 8, !tbaa !142
  %56 = load ptr, ptr %18, align 8, !tbaa !25
  %57 = getelementptr inbounds nuw %struct.ssl_connection_st, ptr %56, i32 0, i32 24
  %58 = getelementptr inbounds nuw %struct.anon, ptr %57, i32 0, i32 14
  %59 = getelementptr inbounds nuw %struct.anon.0, ptr %58, i32 0, i32 33
  %60 = load i64, ptr %59, align 8, !tbaa !324
  store i64 %60, ptr %17, align 8, !tbaa !3
  %61 = load ptr, ptr %16, align 8, !tbaa !142
  %62 = icmp eq ptr %61, null
  br i1 %62, label %66, label %63

63:                                               ; preds = %50
  %64 = load i64, ptr %17, align 8, !tbaa !3
  %65 = icmp ugt i64 %64, 2147483647
  br i1 %65, label %66, label %67

66:                                               ; preds = %63, %50
  store i32 0, ptr %8, align 4
  store i32 1, ptr %19, align 4
  br label %154

67:                                               ; preds = %63
  %68 = load i32, ptr %10, align 4, !tbaa !128
  %69 = icmp sge i32 %68, 0
  br i1 %69, label %70, label %151

70:                                               ; preds = %67
  call void @llvm.lifetime.start.p0(i64 8, ptr %20) #8
  %71 = load i32, ptr %10, align 4, !tbaa !128
  %72 = load i64, ptr %17, align 8, !tbaa !3
  %73 = trunc i64 %72 to i32
  %74 = icmp sge i32 %71, %73
  br i1 %74, label %75, label %76

75:                                               ; preds = %70
  store i32 0, ptr %8, align 4
  store i32 1, ptr %19, align 4
  br label %148

76:                                               ; preds = %70
  %77 = load i32, ptr %10, align 4, !tbaa !128
  %78 = load ptr, ptr %16, align 8, !tbaa !142
  %79 = sext i32 %77 to i64
  %80 = getelementptr inbounds i16, ptr %78, i64 %79
  store ptr %80, ptr %16, align 8, !tbaa !142
  %81 = load ptr, ptr %15, align 8, !tbaa !172
  %82 = icmp ne ptr %81, null
  br i1 %82, label %83, label %91

83:                                               ; preds = %76
  %84 = load ptr, ptr %16, align 8, !tbaa !142
  %85 = load i16, ptr %84, align 2, !tbaa !100
  %86 = zext i16 %85 to i32
  %87 = ashr i32 %86, 8
  %88 = and i32 %87, 255
  %89 = trunc i32 %88 to i8
  %90 = load ptr, ptr %15, align 8, !tbaa !172
  store i8 %89, ptr %90, align 1, !tbaa !161
  br label %91

91:                                               ; preds = %83, %76
  %92 = load ptr, ptr %14, align 8, !tbaa !172
  %93 = icmp ne ptr %92, null
  br i1 %93, label %94, label %101

94:                                               ; preds = %91
  %95 = load ptr, ptr %16, align 8, !tbaa !142
  %96 = load i16, ptr %95, align 2, !tbaa !100
  %97 = zext i16 %96 to i32
  %98 = and i32 %97, 255
  %99 = trunc i32 %98 to i8
  %100 = load ptr, ptr %14, align 8, !tbaa !172
  store i8 %99, ptr %100, align 1, !tbaa !161
  br label %101

101:                                              ; preds = %94, %91
  %102 = load ptr, ptr %18, align 8, !tbaa !25
  %103 = load ptr, ptr %16, align 8, !tbaa !142
  %104 = load i16, ptr %103, align 2, !tbaa !100
  %105 = call ptr @tls1_lookup_sigalg(ptr noundef %102, i16 noundef zeroext %104)
  store ptr %105, ptr %20, align 8, !tbaa !201
  %106 = load ptr, ptr %11, align 8, !tbaa !151
  %107 = icmp ne ptr %106, null
  br i1 %107, label %108, label %119

108:                                              ; preds = %101
  %109 = load ptr, ptr %20, align 8, !tbaa !201
  %110 = icmp ne ptr %109, null
  br i1 %110, label %111, label %115

111:                                              ; preds = %108
  %112 = load ptr, ptr %20, align 8, !tbaa !201
  %113 = getelementptr inbounds nuw %struct.sigalg_lookup_st, ptr %112, i32 0, i32 4
  %114 = load i32, ptr %113, align 4, !tbaa !209
  br label %116

115:                                              ; preds = %108
  br label %116

116:                                              ; preds = %115, %111
  %117 = phi i32 [ %114, %111 ], [ 0, %115 ]
  %118 = load ptr, ptr %11, align 8, !tbaa !151
  store i32 %117, ptr %118, align 4, !tbaa !128
  br label %119

119:                                              ; preds = %116, %101
  %120 = load ptr, ptr %12, align 8, !tbaa !151
  %121 = icmp ne ptr %120, null
  br i1 %121, label %122, label %133

122:                                              ; preds = %119
  %123 = load ptr, ptr %20, align 8, !tbaa !201
  %124 = icmp ne ptr %123, null
  br i1 %124, label %125, label %129

125:                                              ; preds = %122
  %126 = load ptr, ptr %20, align 8, !tbaa !201
  %127 = getelementptr inbounds nuw %struct.sigalg_lookup_st, ptr %126, i32 0, i32 2
  %128 = load i32, ptr %127, align 4, !tbaa !204
  br label %130

129:                                              ; preds = %122
  br label %130

130:                                              ; preds = %129, %125
  %131 = phi i32 [ %128, %125 ], [ 0, %129 ]
  %132 = load ptr, ptr %12, align 8, !tbaa !151
  store i32 %131, ptr %132, align 4, !tbaa !128
  br label %133

133:                                              ; preds = %130, %119
  %134 = load ptr, ptr %13, align 8, !tbaa !151
  %135 = icmp ne ptr %134, null
  br i1 %135, label %136, label %147

136:                                              ; preds = %133
  %137 = load ptr, ptr %20, align 8, !tbaa !201
  %138 = icmp ne ptr %137, null
  br i1 %138, label %139, label %143

139:                                              ; preds = %136
  %140 = load ptr, ptr %20, align 8, !tbaa !201
  %141 = getelementptr inbounds nuw %struct.sigalg_lookup_st, ptr %140, i32 0, i32 6
  %142 = load i32, ptr %141, align 4, !tbaa !221
  br label %144

143:                                              ; preds = %136
  br label %144

144:                                              ; preds = %143, %139
  %145 = phi i32 [ %142, %139 ], [ 0, %143 ]
  %146 = load ptr, ptr %13, align 8, !tbaa !151
  store i32 %145, ptr %146, align 4, !tbaa !128
  br label %147

147:                                              ; preds = %144, %133
  store i32 0, ptr %19, align 4
  br label %148

148:                                              ; preds = %147, %75
  call void @llvm.lifetime.end.p0(i64 8, ptr %20) #8
  %149 = load i32, ptr %19, align 4
  switch i32 %149, label %154 [
    i32 0, label %150
  ]

150:                                              ; preds = %148
  br label %151

151:                                              ; preds = %150, %67
  %152 = load i64, ptr %17, align 8, !tbaa !3
  %153 = trunc i64 %152 to i32
  store i32 %153, ptr %8, align 4
  store i32 1, ptr %19, align 4
  br label %154

154:                                              ; preds = %151, %148, %66, %49
  call void @llvm.lifetime.end.p0(i64 8, ptr %18) #8
  call void @llvm.lifetime.end.p0(i64 8, ptr %17) #8
  call void @llvm.lifetime.end.p0(i64 8, ptr %16) #8
  %155 = load i32, ptr %8, align 4
  ret i32 %155
}