; Function Attrs: nounwind uwtable
define range(i32 0, -2147483648) i32 @SSL_get_sigalgs(ptr noundef %0, i32 noundef %1, ptr noundef writeonly captures(address_is_null) %2, ptr noundef writeonly captures(address_is_null) %3, ptr noundef writeonly captures(address_is_null) %4, ptr noundef writeonly captures(address_is_null) %5, ptr noundef writeonly captures(address_is_null) %6) local_unnamed_addr #2 {
  %8 = icmp eq ptr %0, null
  br i1 %8, label %.critedge, label %9

9:                                                ; preds = %7
  %10 = load i32, ptr %0, align 8, !tbaa !19
  %11 = icmp eq i32 %10, 0
  br i1 %11, label %.thread60, label %12

12:                                               ; preds = %9
  %13 = and i32 %10, 128
  %.not = icmp eq i32 %13, 0
  br i1 %.not, label %.critedge, label %14

14:                                               ; preds = %12
  %15 = tail call ptr @ossl_quic_obj_get0_handshake_layer(ptr noundef nonnull %0) #14
  %16 = icmp eq ptr %15, null
  br i1 %16, label %.critedge, label %.thread60

.thread60:                                        ; preds = %9, %14
  %17 = phi ptr [ %15, %14 ], [ %0, %9 ]
  %18 = getelementptr inbounds nuw i8, ptr %17, i64 992
  %19 = load ptr, ptr %18, align 8, !tbaa !232
  %20 = getelementptr inbounds nuw i8, ptr %17, i64 1008
  %21 = load i64, ptr %20, align 8, !tbaa !235
  %22 = icmp eq ptr %19, null
  %23 = icmp ugt i64 %21, 2147483647
  %or.cond = select i1 %22, i1 true, i1 %23
  br i1 %or.cond, label %.critedge, label %24

24:                                               ; preds = %.thread60
  %25 = icmp sgt i32 %1, -1
  %26 = trunc nuw nsw i64 %21 to i32
  br i1 %25, label %27, label %.critedge

27:                                               ; preds = %24
  %.not51 = icmp samesign ult i32 %1, %26
  br i1 %.not51, label %28, label %.critedge

28:                                               ; preds = %27
  %29 = zext nneg i32 %1 to i64
  %30 = getelementptr inbounds nuw i16, ptr %19, i64 %29
  %.not52 = icmp eq ptr %6, null
  br i1 %.not52, label %35, label %31

31:                                               ; preds = %28
  %32 = load i16, ptr %30, align 2, !tbaa !93
  %33 = lshr i16 %32, 8
  %34 = trunc nuw i16 %33 to i8
  store i8 %34, ptr %6, align 1, !tbaa !141
  br label %35

35:                                               ; preds = %31, %28
  %.not53 = icmp eq ptr %5, null
  br i1 %.not53, label %39, label %36

36:                                               ; preds = %35
  %37 = load i16, ptr %30, align 2, !tbaa !93
  %38 = trunc i16 %37 to i8
  store i8 %38, ptr %5, align 1, !tbaa !141
  br label %39

39:                                               ; preds = %36, %35
  %40 = load i16, ptr %30, align 2, !tbaa !93
  %41 = getelementptr i8, ptr %17, i64 8
  %.val = load ptr, ptr %41, align 8, !tbaa !126
  %42 = getelementptr inbounds nuw i8, ptr %.val, i64 1632
  %43 = load i64, ptr %42, align 8, !tbaa !194
  %.not4.i = icmp eq i64 %43, 0
  br i1 %.not4.i, label %tls1_lookup_sigalg.exit, label %.lr.ph.preheader.i

.lr.ph.preheader.i:                               ; preds = %39
  %44 = getelementptr inbounds nuw i8, ptr %.val, i64 1640
  %45 = load ptr, ptr %44, align 8, !tbaa !192
  br label %.lr.ph.i

.lr.ph.i:                                         ; preds = %52, %.lr.ph.preheader.i
  %.03.i = phi ptr [ %53, %52 ], [ %45, %.lr.ph.preheader.i ]
  %.092.i = phi i64 [ %54, %52 ], [ 0, %.lr.ph.preheader.i ]
  %46 = getelementptr inbounds nuw i8, ptr %.03.i, i64 8
  %47 = load i16, ptr %46, align 8, !tbaa !187
  %48 = icmp eq i16 %47, %40
  br i1 %48, label %49, label %52

49:                                               ; preds = %.lr.ph.i
  %50 = getelementptr inbounds nuw i8, ptr %.03.i, i64 36
  %51 = load i32, ptr %50, align 4, !tbaa !182
  %.not.i = icmp eq i32 %51, 0
  %..0.i = select i1 %.not.i, ptr null, ptr %.03.i
  br label %tls1_lookup_sigalg.exit

52:                                               ; preds = %.lr.ph.i
  %53 = getelementptr inbounds nuw i8, ptr %.03.i, i64 40
  %54 = add nuw i64 %.092.i, 1
  %exitcond.not.i = icmp eq i64 %54, %43
  br i1 %exitcond.not.i, label %tls1_lookup_sigalg.exit, label %.lr.ph.i, !llvm.loop !206

tls1_lookup_sigalg.exit:                          ; preds = %52, %39, %49
  %.010.i = phi ptr [ %..0.i, %49 ], [ null, %39 ], [ null, %52 ]
  %.not54 = icmp eq ptr %2, null
  br i1 %.not54, label %61, label %55

55:                                               ; preds = %tls1_lookup_sigalg.exit
  %.not55 = icmp eq ptr %.010.i, null
  br i1 %.not55, label %59, label %56

56:                                               ; preds = %55
  %57 = getelementptr inbounds nuw i8, ptr %.010.i, i64 20
  %58 = load i32, ptr %57, align 4, !tbaa !183
  br label %59

59:                                               ; preds = %55, %56
  %60 = phi i32 [ %58, %56 ], [ 0, %55 ]
  store i32 %60, ptr %2, align 4, !tbaa !135
  br label %61

61:                                               ; preds = %59, %tls1_lookup_sigalg.exit
  %.not56 = icmp eq ptr %3, null
  br i1 %.not56, label %68, label %62

62:                                               ; preds = %61
  %.not57 = icmp eq ptr %.010.i, null
  br i1 %.not57, label %66, label %63

63:                                               ; preds = %62
  %64 = getelementptr inbounds nuw i8, ptr %.010.i, i64 12
  %65 = load i32, ptr %64, align 4, !tbaa !178
  br label %66

66:                                               ; preds = %62, %63
  %67 = phi i32 [ %65, %63 ], [ 0, %62 ]
  store i32 %67, ptr %3, align 4, !tbaa !135
  br label %68

68:                                               ; preds = %66, %61
  %.not58 = icmp eq ptr %4, null
  br i1 %.not58, label %.critedge, label %69

69:                                               ; preds = %68
  %.not59 = icmp eq ptr %.010.i, null
  br i1 %.not59, label %73, label %70

70:                                               ; preds = %69
  %71 = getelementptr inbounds nuw i8, ptr %.010.i, i64 28
  %72 = load i32, ptr %71, align 4, !tbaa !189
  br label %73

73:                                               ; preds = %69, %70
  %74 = phi i32 [ %72, %70 ], [ 0, %69 ]
  store i32 %74, ptr %4, align 4, !tbaa !135
  br label %.critedge

.critedge:                                        ; preds = %24, %68, %73, %12, %7, %27, %.thread60, %14
  %.0 = phi i32 [ 0, %14 ], [ 0, %.thread60 ], [ 0, %27 ], [ 0, %7 ], [ 0, %12 ], [ %26, %73 ], [ %26, %68 ], [ %26, %24 ]
  ret i32 %.0
}